target datalayout = "e-m:e-p270:32:32-p271:32:32-p272:64:64-i64:64-i128:128-f80:128-n8:16:32:64-S128"
target triple = "x86_64-pc-linux-gnu"

%struct.lv_ll_t = type { i32, ptr, ptr }
%struct._lv_group_t = type { %struct.lv_ll_t, ptr, ptr, ptr, ptr, i8 }

; Function Attrs: nounwind uwtable
define ptr @lv_group_get_focused(ptr noundef %0) #0 {
  %2 = alloca ptr, align 8
  %3 = alloca ptr, align 8
  store ptr %0, ptr %3, align 8, !tbaa !3
  %4 = load ptr, ptr %3, align 8, !tbaa !3
  %5 = icmp ne ptr %4, null
  br i1 %5, label %7, label %6

6:                                                ; preds = %1
  store ptr null, ptr %2, align 8
  br label %18

7:                                                ; preds = %1
  %8 = load ptr, ptr %3, align 8, !tbaa !3
  %9 = getelementptr inbounds nuw %struct._lv_group_t, ptr %8, i32 0, i32 1
  %10 = load ptr, ptr %9, align 8, !tbaa !7
  %11 = icmp eq ptr %10, null
  br i1 %11, label %12, label %13

12:                                               ; preds = %7
  store ptr null, ptr %2, align 8
  br label %18

13:                                               ; preds = %7
  %14 = load ptr, ptr %3, align 8, !tbaa !3
  %15 = getelementptr inbounds nuw %struct._lv_group_t, ptr %14, i32 0, i32 1
  %16 = load ptr, ptr %15, align 8, !tbaa !7
  %17 = load ptr, ptr %16, align 8, !tbaa !3
  store ptr %17, ptr %2, align 8
  br label %18

18:                                               ; preds = %13, %12, %6
  %19 = load ptr, ptr %2, align 8
  ret ptr %19
}

; Function Attrs: nounwind uwtable
define void @lv_group_swap_obj(ptr noundef %0, ptr noundef %1) #0 {
  %3 = alloca ptr, align 8
  %4 = alloca ptr, align 8
  %5 = alloca ptr, align 8
  %6 = alloca ptr, align 8
  %7 = alloca i32, align 4
  %8 = alloca ptr, align 8
  %9 = alloca ptr, align 8
  store ptr %0, ptr %3, align 8, !tbaa !3
  store ptr %1, ptr %4, align 8, !tbaa !3
  call void @llvm.lifetime.start.p0(i64 8, ptr %5) #3
  %10 = load ptr, ptr %3, align 8, !tbaa !3
  %11 = call ptr @lv_obj_get_group(ptr noundef %10)
  store ptr %11, ptr %5, align 8, !tbaa !3
  call void @llvm.lifetime.start.p0(i64 8, ptr %6) #3
  %12 = load ptr, ptr %4, align 8, !tbaa !3
  %13 = call ptr @lv_obj_get_group(ptr noundef %12)
  store ptr %13, ptr %6, align 8, !tbaa !3
  %14 = load ptr, ptr %5, align 8, !tbaa !3
  %15 = load ptr, ptr %6, align 8, !tbaa !3
  %16 = icmp ne ptr %14, %15
  br i1 %16, label %17, label %18

17:                                               ; preds = %2
  store i32 1, ptr %7, align 4
  br label %68

18:                                               ; preds = %2
  %19 = load ptr, ptr %5, align 8, !tbaa !3
  %20 = icmp eq ptr %19, null
  br i1 %20, label %21, label %22

21:                                               ; preds = %18
  store i32 1, ptr %7, align 4
  br label %68

22:                                               ; preds = %18
  call void @llvm.lifetime.start.p0(i64 8, ptr %8) #3
  %23 = load ptr, ptr %5, align 8, !tbaa !3
  %24 = getelementptr inbounds nuw %struct._lv_group_t, ptr %23, i32 0, i32 0
  %25 = call ptr @lv_ll_get_head(ptr noundef %24)
  store ptr %25, ptr %8, align 8, !tbaa !3
  br label %26

26:                                               ; preds = %47, %22
  %27 = load ptr, ptr %8, align 8, !tbaa !3
  %28 = icmp ne ptr %27, null
  br i1 %28, label %29, label %52

29:                                               ; preds = %26
  %30 = load ptr, ptr %8, align 8, !tbaa !3
  %31 = load ptr, ptr %30, align 8, !tbaa !3
  %32 = load ptr, ptr %3, align 8, !tbaa !3
  %33 = icmp eq ptr %31, %32
  br i1 %33, label %34, label %37

34:                                               ; preds = %29
  %35 = load ptr, ptr %4, align 8, !tbaa !3
  %36 = load ptr, ptr %8, align 8, !tbaa !3
  store ptr %35, ptr %36, align 8, !tbaa !3
  br label %46

37:                                               ; preds = %29
  %38 = load ptr, ptr %8, align 8, !tbaa !3
  %39 = load ptr, ptr %38, align 8, !tbaa !3
  %40 = load ptr, ptr %4, align 8, !tbaa !3
  %41 = icmp eq ptr %39, %40
  br i1 %41, label %42, label %45

42:                                               ; preds = %37
  %43 = load ptr, ptr %3, align 8, !tbaa !3
  %44 = load ptr, ptr %8, align 8, !tbaa !3
  store ptr %43, ptr %44, align 8, !tbaa !3
  br label %45

45:                                               ; preds = %42, %37
  br label %46

46:                                               ; preds = %45, %34
  br label %47

47:                                               ; preds = %46
  %48 = load ptr, ptr %5, align 8, !tbaa !3
  %49 = getelementptr inbounds nuw %struct._lv_group_t, ptr %48, i32 0, i32 0
  %50 = load ptr, ptr %8, align 8, !tbaa !3
  %51 = call ptr @lv_ll_get_next(ptr noundef %49, ptr noundef %50)
  store ptr %51, ptr %8, align 8, !tbaa !3
  br label %26, !llvm.loop !41

52:                                               ; preds = %26
  call void @llvm.lifetime.start.p0(i64 8, ptr %9) #3
  %53 = load ptr, ptr %5, align 8, !tbaa !3
  %54 = call ptr @lv_group_get_focused(ptr noundef %53)
  store ptr %54, ptr %9, align 8, !tbaa !3
  %55 = load ptr, ptr %9, align 8, !tbaa !3
  %56 = load ptr, ptr %3, align 8, !tbaa !3
  %57 = icmp eq ptr %55, %56
  br i1 %57, label %58, label %60

58:                                               ; preds = %52
  %59 = load ptr, ptr %4, align 8, !tbaa !3
  call void @lv_group_focus_obj(ptr noundef %59)
  br label %67

60:                                               ; preds = %52
  %61 = load ptr, ptr %9, align 8, !tbaa !3
  %62 = load ptr, ptr %4, align 8, !tbaa !3
  %63 = icmp eq ptr %61, %62
  br i1 %63, label %64, label %66

64:                                               ; preds = %60
  %65 = load ptr, ptr %3, align 8, !tbaa !3
  call void @lv_group_focus_obj(ptr noundef %65)
  br label %66

66:                                               ; preds = %64, %60
  br label %67

67:                                               ; preds = %66, %58
  call void @llvm.lifetime.end.p0(i64 8, ptr %9) #3
  call void @llvm.lifetime.end.p0(i64 8, ptr %8) #3
  store i32 0, ptr %7, align 4
  br label %68

68:                                               ; preds = %67, %21, %17
  call void @llvm.lifetime.end.p0(i64 8, ptr %6) #3
  call void @llvm.lifetime.end.p0(i64 8, ptr %5) #3
  %69 = load i32, ptr %7, align 4
  switch i32 %69, label %71 [
    i32 0, label %70
    i32 1, label %70
  ]

70:                                               ; preds = %68, %68
  ret void

71:                                               ; preds = %68
  unreachable
}