; Function Attrs: nounwind uwtable
define void @lv_group_swap_obj(ptr noundef %0, ptr noundef %1) local_unnamed_addr #0 {
  %3 = tail call ptr @lv_obj_get_group(ptr noundef %0) #10
  %4 = tail call ptr @lv_obj_get_group(ptr noundef %1) #10
  %.not = icmp ne ptr %3, %4
  %5 = icmp eq ptr %3, null
  %or.cond = or i1 %5, %.not
  br i1 %or.cond, label %22, label %6

6:                                                ; preds = %2
  %7 = tail call ptr @lv_ll_get_head(ptr noundef nonnull %3) #10
  %.not2829 = icmp eq ptr %7, null
  br i1 %.not2829, label %._crit_edge, label %.lr.ph

.lr.ph:                                           ; preds = %6, %12
  %.030 = phi ptr [ %13, %12 ], [ %7, %6 ]
  %8 = load ptr, ptr %.030, align 8, !tbaa !11
  %9 = icmp eq ptr %8, %0
  br i1 %9, label %.sink.split, label %10

10:                                               ; preds = %.lr.ph
  %11 = icmp eq ptr %8, %1
  br i1 %11, label %.sink.split, label %12

.sink.split:                                      ; preds = %10, %.lr.ph
  %.sink = phi ptr [ %1, %.lr.ph ], [ %0, %10 ]
  store ptr %.sink, ptr %.030, align 8, !tbaa !11
  br label %12

12:                                               ; preds = %.sink.split, %10
  %13 = tail call ptr @lv_ll_get_next(ptr noundef nonnull %3, ptr noundef nonnull %.030) #10
  %.not28 = icmp eq ptr %13, null
  br i1 %.not28, label %._crit_edge, label %.lr.ph, !llvm.loop !38

._crit_edge:                                      ; preds = %12, %6
  %14 = getelementptr inbounds nuw i8, ptr %3, i64 24
  %15 = load ptr, ptr %14, align 8, !tbaa !3
  %16 = icmp eq ptr %15, null
  br i1 %16, label %lv_group_get_focused.exit, label %17

17:                                               ; preds = %._crit_edge
  %18 = load ptr, ptr %15, align 8, !tbaa !11
  br label %lv_group_get_focused.exit

lv_group_get_focused.exit:                        ; preds = %._crit_edge, %17
  %.0.i = phi ptr [ %18, %17 ], [ null, %._crit_edge ]
  %19 = icmp eq ptr %.0.i, %0
  br i1 %19, label %.sink.split31, label %20

20:                                               ; preds = %lv_group_get_focused.exit
  %21 = icmp eq ptr %.0.i, %1
  br i1 %21, label %.sink.split31, label %22

.sink.split31:                                    ; preds = %20, %lv_group_get_focused.exit
  %.sink32 = phi ptr [ %1, %lv_group_get_focused.exit ], [ %0, %20 ]
  tail call void @lv_group_focus_obj(ptr noundef %.sink32)
  br label %22

22:                                               ; preds = %.sink.split31, %20, %2
  ret void
}